 notifications_bindings

 Timestamp is 5da684b9 (Tue Oct 15 21:47:21 2019)

 Preferred load address is 10000000

 Start         Length     Name                   Class
 0001:00000000 00001570H .text$mn                CODE
 0001:00001570 0000012dH .text$x                 CODE
 0002:00000000 0000010cH .idata$5                DATA
 0002:0000010c 00000004H .00cfg                  DATA
 0002:00000110 00000004H .CRT$XCA                DATA
 0002:00000114 00000004H .CRT$XCU                DATA
 0002:00000118 00000004H .CRT$XCZ                DATA
 0002:0000011c 00000004H .CRT$XIA                DATA
 0002:00000120 00000004H .CRT$XIZ                DATA
 0002:00000124 00000004H .CRT$XPA                DATA
 0002:00000128 00000004H .CRT$XPZ                DATA
 0002:0000012c 00000004H .CRT$XTA                DATA
 0002:00000130 00000010H .CRT$XTZ                DATA
 0002:00000134 00000000H .gfids$y                DATA
 0002:00000140 00000280H .rdata                  DATA
 0002:000003c0 00000018H .rdata$sxdata           DATA
 0002:000003d8 000002e8H .rdata$zzzdbg           DATA
 0002:000006c0 00000004H .rtc$IAA                DATA
 0002:000006c4 00000004H .rtc$IZZ                DATA
 0002:000006c8 00000004H .rtc$TAA                DATA
 0002:000006cc 00000004H .rtc$TZZ                DATA
 0002:000006d0 000001b0H .xdata$x                DATA
 0002:00000880 00000070H .edata                  DATA
 0002:000008f0 00000078H .idata$2                DATA
 0002:00000968 00000014H .idata$3                DATA
 0002:0000097c 0000010cH .idata$4                DATA
 0002:00000a88 00000c3aH .idata$6                DATA
 0003:00000000 00000040H .data                   DATA
 0003:00000040 00000374H .bss                    DATA
 0004:00000000 00000060H .rsrc$01                DATA
 0004:00000060 00000180H .rsrc$02                DATA

  Address         Publics by Value              Rva+Base       Lib:Object

 0000:00000000       ___volatile_metadata       00000000     <absolute>
 0000:00000000       ___hybrid_auxiliary_iat    00000000     <absolute>
 0000:00000000       ___guard_longjmp_count     00000000     <absolute>
 0000:00000000       ___dynamic_value_reloc_table 00000000     <absolute>
 0000:00000000       ___guard_iat_count         00000000     <absolute>
 0000:00000000       ___guard_fids_count        00000000     <absolute>
 0000:00000000       ___guard_longjmp_table     00000000     <absolute>
 0000:00000000       ___hybrid_code_map_count   00000000     <absolute>
 0000:00000000       ___enclave_config          00000000     <absolute>
 0000:00000000       ___guard_fids_table        00000000     <absolute>
 0000:00000000       ___guard_iat_table         00000000     <absolute>
 0000:00000000       ___hybrid_code_map         00000000     <absolute>
 0000:00000006       ___safe_se_handler_count   00000006     <absolute>
 0000:00000100       ___guard_flags             00000100     <absolute>
 0000:00000000       ___ImageBase               10000000     <linker-defined>
 0001:000000c0       ?New@?$Factory@VFunctionTemplate@v8@@@imp@Nan@@SA?AV?$Local@VFunctionTemplate@v8@@@v8@@P6AXABV?$FunctionCallbackInfo@VValue@v8@@@3@@ZV?$Local@VValue@v8@@@5@V?$Local@VSignature@v8@@@5@@Z 100010c0 f i notifications_bindings.obj
 0001:00000250       ??1HandleScope@Nan@@QAE@XZ 10001250 f i notifications_bindings.obj
 0001:00000260       ?RegisterAppForNotificationSupport@@YAXABV?$FunctionCallbackInfo@VValue@v8@@@Nan@@@Z 10001260 f   notifications_bindings.obj
 0001:000005d0       ?RegisterComServer@@YAXABV?$FunctionCallbackInfo@VValue@v8@@@Nan@@@Z 100015d0 f   notifications_bindings.obj
 0001:00000630       ?RegisterActivator@@YAXABV?$FunctionCallbackInfo@VValue@v8@@@Nan@@@Z 10001630 f   notifications_bindings.obj
 0001:00000690       ?UnregisterActivator@@YAXABV?$FunctionCallbackInfo@VValue@v8@@@Nan@@@Z 10001690 f   notifications_bindings.obj
 0001:000006f0       ?init@@YAXV?$Local@VObject@v8@@@v8@@@Z 100016f0 f   notifications_bindings.obj
 0001:00000760       ??$SetMethod@VObject@v8@@VLocal@2@@Nan@@YAXV?$Local@VObject@v8@@@v8@@PBDP6AXABV?$FunctionCallbackInfo@VValue@v8@@@0@@Z@Z 10001760 f i notifications_bindings.obj
 0001:00000820       ??$SetMethodAux@V?$Local@VObject@v8@@@v8@@@imp@Nan@@YAXV?$Local@VObject@v8@@@v8@@V?$Local@VString@v8@@@3@V?$Local@VFunctionTemplate@v8@@@3@ZZ 10001820 f i notifications_bindings.obj
 0001:000008fe       @__security_check_cookie@4 100018fe f   MSVCRT:secchk.obj
 0001:00000c2f       __DllMainCRTStartup@12     10001c2f f   MSVCRT:dll_dllmain.obj
 0001:00000c52       ___raise_securityfailure   10001c52 f   MSVCRT:gs_report.obj
 0001:00000c7a       ___report_gsfailure        10001c7a f   MSVCRT:gs_report.obj
 0001:00000dc0       ___security_init_cookie    10001dc0 f   MSVCRT:gs_support.obj
 0001:00000e0b       _DllMain@12                10001e0b f   MSVCRT:dll_dllmain_stub.obj
 0001:00000e2d       ?__scrt_initialize_type_info@@YAXXZ 10001e2d f   MSVCRT:tncleanup.obj
 0001:00000e39       ?__scrt_uninitialize_type_info@@YAXXZ 10001e39 f   MSVCRT:tncleanup.obj
 0001:00000e45       ___local_stdio_printf_options 10001e45 f i MSVCRT:default_local_stdio_options.obj
 0001:00000e4b       ___local_stdio_scanf_options 10001e4b f i MSVCRT:default_local_stdio_options.obj
 0001:00000e51       ___scrt_initialize_default_local_stdio_options 10001e51 f   MSVCRT:default_local_stdio_options.obj
 0001:00000eb2       ___scrt_acquire_startup_lock 10001eb2 f   MSVCRT:utility.obj
 0001:00000ee4       ___scrt_dllmain_after_initialize_c 10001ee4 f   MSVCRT:utility.obj
 0001:00000f0f       ___scrt_dllmain_before_initialize_c 10001f0f f   MSVCRT:utility.obj
 0001:00000f1d       ___scrt_dllmain_crt_thread_attach 10001f1d f   MSVCRT:utility.obj
 0001:00000f3c       ___scrt_dllmain_crt_thread_detach 10001f3c f   MSVCRT:utility.obj
 0001:00000f49       ___scrt_dllmain_exception_filter 10001f49 f   MSVCRT:utility.obj
 0001:00000f7d       ___scrt_dllmain_uninitialize_c 10001f7d f   MSVCRT:utility.obj
 0001:00000fa0       ___scrt_dllmain_uninitialize_critical 10001fa0 f   MSVCRT:utility.obj
 0001:00000fad       ___scrt_initialize_crt     10001fad f   MSVCRT:utility.obj
 0001:00000fe6       ___scrt_initialize_onexit_tables 10001fe6 f   MSVCRT:utility.obj
 0001:0000108b       ___scrt_is_nonwritable_in_current_image 1000208b f   MSVCRT:utility.obj
 0001:0000111f       ___scrt_release_startup_lock 1000211f f   MSVCRT:utility.obj
 0001:0000113c       ___scrt_uninitialize_crt   1000213c f   MSVCRT:utility.obj
 0001:00001164       ___scrt_get_dyn_tls_init_callback 10002164 f   MSVCRT:dyn_tls_init.obj
 0001:0000116a       ___scrt_fastfail           1000216a f   MSVCRT:utility_desktop.obj
 0001:00001284       __crt_debugger_hook        10002284 f   MSVCRT:utility_desktop.obj
 0001:0000128c       __RTC_Initialize           1000228c f   MSVCRT:initsect.obj
 0001:000012b8       __RTC_Terminate            100022b8 f   MSVCRT:initsect.obj
 0001:000012f0       __SEH_prolog4              100022f0 f   MSVCRT:sehprolg4.obj
 0001:00001336       __SEH_epilog4              10002336 f   MSVCRT:sehprolg4.obj
 0001:0000134b       __except_handler4          1000234b f   MSVCRT:chandler4gs.obj
 0001:0000136e       @_guard_check_icall_nop@4  1000236e f i MSVCRT:guard_support.obj
 0001:0000136f       ___isa_available_init      1000236f f   MSVCRT:cpu_disp.obj
 0001:00001506       __get_startup_argv_mode    10002506 f   MSVCRT:argv_mode.obj
 0001:0000150a       ___scrt_is_ucrt_dll_in_use 1000250a f   MSVCRT:ucrt_detection.obj
 0001:00001516       ___CxxFrameHandler3        10002516 f   vcruntime:VCRUNTIME140.dll
 0001:0000151c       ___std_type_info_destroy_list 1000251c f   vcruntime:VCRUNTIME140.dll
 0001:00001522       _memset                    10002522 f   vcruntime:VCRUNTIME140.dll
 0001:00001528       __except_handler4_common   10002528 f   vcruntime:VCRUNTIME140.dll
 0001:0000152e       __initterm                 1000252e f   ucrt:api-ms-win-crt-runtime-l1-1-0.dll
 0001:00001534       __initterm_e               10002534 f   ucrt:api-ms-win-crt-runtime-l1-1-0.dll
 0001:0000153a       __seh_filter_dll           1000253a f   ucrt:api-ms-win-crt-runtime-l1-1-0.dll
 0001:00001540       __configure_narrow_argv    10002540 f   ucrt:api-ms-win-crt-runtime-l1-1-0.dll
 0001:00001546       __initialize_narrow_environment 10002546 f   ucrt:api-ms-win-crt-runtime-l1-1-0.dll
 0001:0000154c       __initialize_onexit_table  1000254c f   ucrt:api-ms-win-crt-runtime-l1-1-0.dll
 0001:00001552       __execute_onexit_table     10002552 f   ucrt:api-ms-win-crt-runtime-l1-1-0.dll
 0001:00001558       __cexit                    10002558 f   ucrt:api-ms-win-crt-runtime-l1-1-0.dll
 0001:0000155e       _IsProcessorFeaturePresent@4 1000255e f   kernel32:KERNEL32.dll
 0001:00001564       ___acrt_thread_detach      10002564 f   MSVCRT:ucrt_stubs.obj
 0001:00001564       ___scrt_stub_for_acrt_thread_attach 10002564 f   MSVCRT:ucrt_stubs.obj
 0001:00001564       ___scrt_stub_for_acrt_thread_detach 10002564 f   MSVCRT:ucrt_stubs.obj
 0001:00001564       ___acrt_thread_attach      10002564 f   MSVCRT:ucrt_stubs.obj
 0001:00001564       ___vcrt_thread_detach      10002564 f   MSVCRT:ucrt_stubs.obj
 0001:00001564       ___scrt_stub_for_acrt_uninitialize 10002564 f   MSVCRT:ucrt_stubs.obj
 0001:00001564       ___vcrt_initialize         10002564 f   MSVCRT:ucrt_stubs.obj
 0001:00001564       ___vcrt_thread_attach      10002564 f   MSVCRT:ucrt_stubs.obj
 0001:00001564       ___scrt_stub_for_acrt_uninitialize_critical 10002564 f   MSVCRT:ucrt_stubs.obj
 0001:00001564       ___vcrt_uninitialize_critical 10002564 f   MSVCRT:ucrt_stubs.obj
 0001:00001564       ___vcrt_uninitialize       10002564 f   MSVCRT:ucrt_stubs.obj
 0001:00001564       ___scrt_stub_for_acrt_initialize 10002564 f   MSVCRT:ucrt_stubs.obj
 0001:00001564       ___acrt_initialize         10002564 f   MSVCRT:ucrt_stubs.obj
 0001:00001564       ___acrt_uninitialize_critical 10002564 f   MSVCRT:ucrt_stubs.obj
 0001:00001564       ___acrt_uninitialize       10002564 f   MSVCRT:ucrt_stubs.obj
 0001:00001567       ___scrt_stub_for_is_c_termination_complete 10002567 f   MSVCRT:ucrt_stubs.obj
 0001:00001567       __is_c_termination_complete 10002567 f   MSVCRT:ucrt_stubs.obj
 0002:00000000       __imp_?RegisterAppForNotificationSupport@InteractiveNotifications@@YAJPB_W0@Z 10003000     InteractiveNotifications:InteractiveNotifications.dll
 0002:00000004       __imp_?UnregisterActivator@InteractiveNotifications@@YAXXZ 10003004     InteractiveNotifications:InteractiveNotifications.dll
 0002:00000008       __imp_?RegisterComServer@InteractiveNotifications@@YAJXZ 10003008     InteractiveNotifications:InteractiveNotifications.dll
 0002:0000000c       __imp_?RegisterActivator@InteractiveNotifications@@YAJXZ 1000300c     InteractiveNotifications:InteractiveNotifications.dll
 0002:00000010       \177InteractiveNotifications_NULL_THUNK_DATA 10003010     InteractiveNotifications:InteractiveNotifications.dll
 0002:00000014       __imp__GetSystemTimeAsFileTime@4 10003014     kernel32:KERNEL32.dll
 0002:00000018       __imp__GetCurrentThreadId@0 10003018     kernel32:KERNEL32.dll
 0002:0000001c       __imp__GetCurrentProcessId@0 1000301c     kernel32:KERNEL32.dll
 0002:00000020       __imp__QueryPerformanceCounter@4 10003020     kernel32:KERNEL32.dll
 0002:00000024       __imp__InitializeSListHead@4 10003024     kernel32:KERNEL32.dll
 0002:00000028       __imp__TerminateProcess@8  10003028     kernel32:KERNEL32.dll
 0002:0000002c       __imp__GetCurrentProcess@0 1000302c     kernel32:KERNEL32.dll
 0002:00000030       __imp__SetUnhandledExceptionFilter@4 10003030     kernel32:KERNEL32.dll
 0002:00000034       __imp__UnhandledExceptionFilter@4 10003034     kernel32:KERNEL32.dll
 0002:00000038       __imp__DisableThreadLibraryCalls@4 10003038     kernel32:KERNEL32.dll
 0002:0000003c       __imp__IsDebuggerPresent@0 1000303c     kernel32:KERNEL32.dll
 0002:00000040       __imp__IsProcessorFeaturePresent@4 10003040     kernel32:KERNEL32.dll
 0002:00000044       \177KERNEL32_NULL_THUNK_DATA 10003044     kernel32:KERNEL32.dll
 0002:00000048       __imp____CxxFrameHandler3  10003048     vcruntime:VCRUNTIME140.dll
 0002:0000004c       __imp____std_type_info_destroy_list 1000304c     vcruntime:VCRUNTIME140.dll
 0002:00000050       __imp___except_handler4_common 10003050     vcruntime:VCRUNTIME140.dll
 0002:00000054       __imp__memset              10003054     vcruntime:VCRUNTIME140.dll
 0002:00000058       \177VCRUNTIME140_NULL_THUNK_DATA 10003058     vcruntime:VCRUNTIME140.dll
 0002:0000005c       __imp___initialize_onexit_table 1000305c     ucrt:api-ms-win-crt-runtime-l1-1-0.dll
 0002:00000060       __imp___initialize_narrow_environment 10003060     ucrt:api-ms-win-crt-runtime-l1-1-0.dll
 0002:00000064       __imp___configure_narrow_argv 10003064     ucrt:api-ms-win-crt-runtime-l1-1-0.dll
 0002:00000068       __imp___execute_onexit_table 10003068     ucrt:api-ms-win-crt-runtime-l1-1-0.dll
 0002:0000006c       __imp___initterm_e         1000306c     ucrt:api-ms-win-crt-runtime-l1-1-0.dll
 0002:00000070       __imp___initterm           10003070     ucrt:api-ms-win-crt-runtime-l1-1-0.dll
 0002:00000074       __imp___cexit              10003074     ucrt:api-ms-win-crt-runtime-l1-1-0.dll
 0002:00000078       __imp___seh_filter_dll     10003078     ucrt:api-ms-win-crt-runtime-l1-1-0.dll
 0002:0000007c       \177api-ms-win-crt-runtime-l1-1-0_NULL_THUNK_DATA 1000307c     ucrt:api-ms-win-crt-runtime-l1-1-0.dll
 0002:00000080       __imp_?New@FunctionTemplate@v8@@SA?AV?$Local@VFunctionTemplate@v8@@@2@PAVIsolate@2@P6AXABV?$FunctionCallbackInfo@VValue@v8@@@2@@ZV?$Local@VValue@v8@@@2@V?$Local@VSignature@v8@@@2@HW4ConstructorBehavior@2@@Z 10003080     iojs:node.dll
 0002:00000084       __imp_?SetClassName@FunctionTemplate@v8@@QAEXV?$Local@VString@v8@@@2@@Z 10003084     iojs:node.dll
 0002:00000088       __imp_?TypeError@Exception@v8@@SA?AV?$Local@VValue@v8@@@2@V?$Local@VString@v8@@@2@@Z 10003088     iojs:node.dll
 0002:0000008c       __imp_?Error@Exception@v8@@SA?AV?$Local@VValue@v8@@@2@V?$Local@VString@v8@@@2@@Z 1000308c     iojs:node.dll
 0002:00000090       __imp_?ToInteger@Value@v8@@QBE?AV?$MaybeLocal@VInteger@v8@@@2@V?$Local@VContext@v8@@@2@@Z 10003090     iojs:node.dll
 0002:00000094       __imp__node_module_register 10003094     iojs:node.dll
 0002:00000098       __imp_?New@ObjectTemplate@v8@@SA?AV?$Local@VObjectTemplate@v8@@@2@PAVIsolate@2@V?$Local@VFunctionTemplate@v8@@@2@@Z 10003098     iojs:node.dll
 0002:0000009c       __imp_?ToLocalEmpty@V8@v8@@CAXXZ 1000309c     iojs:node.dll
 0002:000000a0       __imp_?NewInstance@ObjectTemplate@v8@@QAE?AV?$MaybeLocal@VObject@v8@@@2@V?$Local@VContext@v8@@@2@@Z 100030a0     iojs:node.dll
 0002:000000a4       __imp_?SetInternalFieldCount@ObjectTemplate@v8@@QAEXH@Z 100030a4     iojs:node.dll
 0002:000000a8       __imp_?Set@Object@v8@@QAE?AV?$Maybe@_N@2@V?$Local@VContext@v8@@@2@V?$Local@VValue@v8@@@2@1@Z 100030a8     iojs:node.dll
 0002:000000ac       __imp_?SetInternalField@Object@v8@@QAEXHV?$Local@VValue@v8@@@2@@Z 100030ac     iojs:node.dll
 0002:000000b0       __imp_?SlowGetInternalField@Object@v8@@AAE?AV?$Local@VValue@v8@@@2@H@Z 100030b0     iojs:node.dll
 0002:000000b4       __imp_?NewFromUtf8@String@v8@@SA?AV?$MaybeLocal@VString@v8@@@2@PAVIsolate@2@PBDW4NewStringType@2@H@Z 100030b4     iojs:node.dll
 0002:000000b8       __imp_?Concat@String@v8@@SA?AV?$Local@VString@v8@@@2@V32@0@Z 100030b8     iojs:node.dll
 0002:000000bc       __imp_??0Value@String@v8@@QAE@V?$Local@VValue@v8@@@2@@Z 100030bc     iojs:node.dll
 0002:000000c0       __imp_??1Value@String@v8@@QAE@XZ 100030c0     iojs:node.dll
 0002:000000c4       __imp_??0EscapableHandleScope@v8@@QAE@PAVIsolate@1@@Z 100030c4     iojs:node.dll
 0002:000000c8       __imp_?Escape@EscapableHandleScope@v8@@AAEPAPAVObject@internal@2@PAPAV342@@Z 100030c8     iojs:node.dll
 0002:000000cc       __imp_?ToString@Value@v8@@QBE?AV?$MaybeLocal@VString@v8@@@2@V?$Local@VContext@v8@@@2@@Z 100030cc     iojs:node.dll
 0002:000000d0       __imp_?GetFunction@FunctionTemplate@v8@@QAE?AV?$MaybeLocal@VFunction@v8@@@2@V?$Local@VContext@v8@@@2@@Z 100030d0     iojs:node.dll
 0002:000000d4       __imp_??0HandleScope@v8@@QAE@PAVIsolate@1@@Z 100030d4     iojs:node.dll
 0002:000000d8       __imp_??1HandleScope@v8@@QAE@XZ 100030d8     iojs:node.dll
 0002:000000dc       __imp_?CreateHandle@HandleScope@v8@@CAPAPAVObject@internal@2@PAVHeapObject@42@PAV342@@Z 100030dc     iojs:node.dll
 0002:000000e0       __imp_?CreateHandle@HandleScope@v8@@KAPAPAVObject@internal@2@PAVIsolate@42@PAV342@@Z 100030e0     iojs:node.dll
 0002:000000e4       __imp_?GetCurrent@Isolate@v8@@SAPAV12@XZ 100030e4     iojs:node.dll
 0002:000000e8       __imp_?GetCurrentContext@Isolate@v8@@QAE?AV?$Local@VContext@v8@@@2@XZ 100030e8     iojs:node.dll
 0002:000000ec       __imp_?ThrowException@Isolate@v8@@QAE?AV?$Local@VValue@v8@@@2@V32@@Z 100030ec     iojs:node.dll
 0002:000000f0       __imp_?New@Integer@v8@@SA?AV?$Local@VInteger@v8@@@2@PAVIsolate@2@H@Z 100030f0     iojs:node.dll
 0002:000000f4       __imp_?New@External@v8@@SA?AV?$Local@VExternal@v8@@@2@PAVIsolate@2@PAX@Z 100030f4     iojs:node.dll
 0002:000000f8       __imp_?Value@External@v8@@QBEPAXXZ 100030f8     iojs:node.dll
 0002:000000fc       __imp_??1EscapableHandleScope@v8@@QAE@XZ 100030fc     iojs:node.dll
 0002:00000100       \177node_NULL_THUNK_DATA   10003100     iojs:node.dll
 0002:00000104       __imp__CoInitializeEx@8    10003104     ole32:ole32.dll
 0002:00000108       \177ole32_NULL_THUNK_DATA  10003108     ole32:ole32.dll
 0002:0000010c       ___guard_check_icall_fptr  1000310c     MSVCRT:guard_support.obj
 0002:00000110       ___xc_a                    10003110     MSVCRT:initializers.obj
 0002:00000114       __register_notifications_bindings_ 10003114     notifications_bindings.obj
 0002:00000118       ___xc_z                    10003118     MSVCRT:initializers.obj
 0002:0000011c       ___xi_a                    1000311c     MSVCRT:initializers.obj
 0002:00000120       ___xi_z                    10003120     MSVCRT:initializers.obj
 0002:00000124       ___xp_a                    10003124     MSVCRT:initializers.obj
 0002:00000128       ___xp_z                    10003128     MSVCRT:initializers.obj
 0002:0000012c       ___xt_a                    1000312c     MSVCRT:initializers.obj
 0002:00000130       ___xt_z                    10003130     MSVCRT:initializers.obj
 0002:00000140       __pRawDllMain              10003140     MSVCRT:dll_dllmain.obj
 0002:00000140       __pDefaultRawDllMain       10003140     MSVCRT:dll_dllmain.obj
 0002:00000150       ??_C@_0FC@NFLKELJB@Invalid?5arguments?0?5expected?5arg@ 10003150     notifications_bindings.obj
 0002:000001a4       ??_C@_0DL@HMJCAPDL@RegisterAppForNotificationsSupp@ 100031a4     notifications_bindings.obj
 0002:000001e0       ??_C@_0BC@LAPFFHAM@registerComServer@ 100031e0     notifications_bindings.obj
 0002:000001f4       ??_C@_0CC@DEHHALMH@registerAppForNotificationSuppo@ 100031f4     notifications_bindings.obj
 0002:00000218       ??_C@_0BC@DIEPHEAD@registerActivator@ 10003218     notifications_bindings.obj
 0002:0000022c       ??_C@_0BE@ELDICHEO@unregisterActivator@ 1000322c     notifications_bindings.obj
 0002:00000240       ??_C@_0GF@CLDMNAMN@d?3?2local?2notes?2node_modules?2ele@ 10003240     notifications_bindings.obj
 0002:000002a8       ??_C@_0BH@NABCPIKE@notifications_bindings@ 100032a8     notifications_bindings.obj
 0002:00000318       __load_config_used         10003318     MSVCRT:loadcfg.obj
 0002:000003c0       ___safe_se_handler_table   100033c0     <linker-defined>
 0002:000006c0       ___rtc_iaa                 100036c0     MSVCRT:initsect.obj
 0002:000006c4       ___rtc_izz                 100036c4     MSVCRT:initsect.obj
 0002:000006c8       ___rtc_taa                 100036c8     MSVCRT:initsect.obj
 0002:000006cc       ___rtc_tzz                 100036cc     MSVCRT:initsect.obj
 0002:000008f0       __IMPORT_DESCRIPTOR_KERNEL32 100038f0     kernel32:KERNEL32.dll
 0002:00000904       __IMPORT_DESCRIPTOR_ole32  10003904     ole32:ole32.dll
 0002:00000918       __IMPORT_DESCRIPTOR_node   10003918     iojs:node.dll
 0002:0000092c       __IMPORT_DESCRIPTOR_InteractiveNotifications 1000392c     InteractiveNotifications:InteractiveNotifications.dll
 0002:00000940       __IMPORT_DESCRIPTOR_VCRUNTIME140 10003940     vcruntime:VCRUNTIME140.dll
 0002:00000954       __IMPORT_DESCRIPTOR_api-ms-win-crt-runtime-l1-1-0 10003954     ucrt:api-ms-win-crt-runtime-l1-1-0.dll
 0002:00000968       __NULL_IMPORT_DESCRIPTOR   10003968     kernel32:KERNEL32.dll
 0003:00000000       ___security_cookie_complement 10005000     MSVCRT:gs_cookie.obj
 0003:00000004       ___security_cookie         10005004     MSVCRT:gs_cookie.obj
 0003:00000008       ___scrt_native_dllmain_reason 10005008     MSVCRT:utility.obj
 0003:00000010       ___isa_enabled             10005010     MSVCRT:cpu_disp.obj
 0003:00000014       ___scrt_ucrt_dll_is_in_use 10005014     MSVCRT:ucrt_stubs.obj
 0003:00000368       ?__type_info_root_node@@3U__type_info_node@@A 10005368     MSVCRT:tncleanup.obj
 0003:00000370       ?_OptionsStorage@?1??__local_stdio_printf_options@@9@4_KA 10005370     MSVCRT:default_local_stdio_options.obj
 0003:00000378       ?_OptionsStorage@?1??__local_stdio_scanf_options@@9@4_KA 10005378     MSVCRT:default_local_stdio_options.obj
 0003:00000380       ___scrt_current_native_startup_state 10005380     MSVCRT:utility.obj
 0003:00000384       ___scrt_native_startup_lock 10005384     MSVCRT:utility.obj
 0003:000003a4       ___scrt_debugger_hook_flag 100053a4     MSVCRT:utility_desktop.obj
 0003:000003a8       ___isa_available           100053a8     MSVCRT:cpu_disp.obj
 0003:000003ac       ___favor                   100053ac     MSVCRT:cpu_disp.obj
 0003:000003b0       ___dyn_tls_init_callback   100053b0     <common>

 entry point at        0001:00000c2f

 Static symbols

 0000:ffff8000       .debug$S                   10000000     ucrt:api-ms-win-crt-runtime-l1-1-0.dll
 0000:ffff8000       .debug$S                   10000000     ole32:ole32.dll
 0000:ffff8000       .debug$S                   10000000     iojs:node.dll
 0000:ffff8000       .debug$S                   10000000     iojs:node.dll
 0000:ffff8000       .debug$S                   10000000     iojs:node.dll
 0000:ffff8000       .debug$S                   10000000     iojs:node.dll
 0000:ffff8000       .debug$S                   10000000     iojs:node.dll
 0000:ffff8000       .debug$S                   10000000     iojs:node.dll
 0000:ffff8000       .debug$S                   10000000     iojs:node.dll
 0000:ffff8000       .debug$S                   10000000     iojs:node.dll
 0000:ffff8000       .debug$S                   10000000     iojs:node.dll
 0000:ffff8000       .debug$S                   10000000     iojs:node.dll
 0000:ffff8000       .debug$S                   10000000     iojs:node.dll
 0000:ffff8000       .debug$S                   10000000     iojs:node.dll
 0000:ffff8000       .debug$S                   10000000     iojs:node.dll
 0000:ffff8000       .debug$S                   10000000     iojs:node.dll
 0000:ffff8000       .debug$S                   10000000     iojs:node.dll
 0000:ffff8000       .debug$S                   10000000     iojs:node.dll
 0000:ffff8000       .debug$S                   10000000     iojs:node.dll
 0000:ffff8000       .debug$S                   10000000     iojs:node.dll
 0000:ffff8000       .debug$S                   10000000     iojs:node.dll
 0000:ffff8000       .debug$S                   10000000     iojs:node.dll
 0000:ffff8000       .debug$S                   10000000     iojs:node.dll
 0000:ffff8000       .debug$S                   10000000     iojs:node.dll
 0000:ffff8000       .debug$S                   10000000     iojs:node.dll
 0000:ffff8000       .debug$S                   10000000     iojs:node.dll
 0000:ffff8000       .debug$S                   10000000     iojs:node.dll
 0000:ffff8000       .debug$S                   10000000     iojs:node.dll
 0000:ffff8000       .debug$S                   10000000     iojs:node.dll
 0000:ffff8000       .debug$S                   10000000     iojs:node.dll
 0000:ffff8000       .debug$S                   10000000     iojs:node.dll
 0000:ffff8000       .debug$S                   10000000     iojs:node.dll
 0000:ffff8000       .debug$S                   10000000     iojs:node.dll
 0000:ffff8000       .debug$S                   10000000     iojs:node.dll
 0000:ffff8000       .debug$S                   10000000     iojs:node.dll
 0000:ffff8000       .debug$S                   10000000     iojs:node.dll
 0000:ffff8000       .debug$S                   10000000     iojs:node.dll
 0000:ffff8000       .debug$S                   10000000     iojs:node.dll
 0000:ffff8000       .debug$S                   10000000     iojs:node.dll
 0000:ffff8000       .debug$S                   10000000     iojs:node.dll
 0000:ffff8000       .debug$S                   10000000     InteractiveNotifications:InteractiveNotifications.dll
 0000:ffff8000       .debug$S                   10000000     InteractiveNotifications:InteractiveNotifications.dll
 0000:ffff8000       .debug$S                   10000000     InteractiveNotifications:InteractiveNotifications.dll
 0000:ffff8000       .debug$S                   10000000     InteractiveNotifications:InteractiveNotifications.dll
 0000:ffff8000       .debug$S                   10000000     vcruntime:VCRUNTIME140.dll
 0000:ffff8000       .debug$S                   10000000     vcruntime:VCRUNTIME140.dll
 0000:ffff8000       .debug$S                   10000000     vcruntime:VCRUNTIME140.dll
 0000:ffff8000       .debug$S                   10000000     notifications_bindings.exp
 0000:ffff8000       .debug$S                   10000000     vcruntime:VCRUNTIME140.dll
 0000:ffff8000       .debug$S                   10000000     kernel32:KERNEL32.dll
 0000:ffff8000       .debug$S                   10000000     kernel32:KERNEL32.dll
 0000:ffff8000       .debug$S                   10000000     kernel32:KERNEL32.dll
 0000:ffff8000       .debug$S                   10000000     kernel32:KERNEL32.dll
 0000:ffff8000       .debug$S                   10000000     kernel32:KERNEL32.dll
 0000:ffff8000       .debug$S                   10000000     kernel32:KERNEL32.dll
 0000:ffff8000       .debug$S                   10000000     kernel32:KERNEL32.dll
 0000:ffff8000       .debug$S                   10000000     kernel32:KERNEL32.dll
 0000:ffff8000       .debug$S                   10000000     kernel32:KERNEL32.dll
 0000:ffff8000       .debug$S                   10000000     kernel32:KERNEL32.dll
 0000:ffff8000       .debug$S                   10000000     kernel32:KERNEL32.dll
 0000:ffff8000       .debug$S                   10000000     kernel32:KERNEL32.dll
 0000:ffff8000       .debug$S                   10000000     kernel32:KERNEL32.dll
 0000:ffff8000       .debug$S                   10000000     kernel32:KERNEL32.dll
 0000:ffff8000       .debug$S                   10000000     vcruntime:VCRUNTIME140.dll
 0002:ffffd000       .idata$6                   10000000     ucrt:api-ms-win-crt-string-l1-1-0.dll
 0000:ffff8000       .debug$S                   10000000     ucrt:api-ms-win-crt-runtime-l1-1-0.dll
 0000:ffff8000       .debug$S                   10000000     ucrt:api-ms-win-crt-runtime-l1-1-0.dll
 0000:ffff8000       .debug$S                   10000000     ucrt:api-ms-win-crt-runtime-l1-1-0.dll
 0000:ffff8000       .debug$S                   10000000     ucrt:api-ms-win-crt-runtime-l1-1-0.dll
 0000:ffff8000       .debug$S                   10000000     ucrt:api-ms-win-crt-runtime-l1-1-0.dll
 0000:ffff8000       .debug$S                   10000000     ucrt:api-ms-win-crt-runtime-l1-1-0.dll
 0000:ffff8000       .debug$S                   10000000     ucrt:api-ms-win-crt-runtime-l1-1-0.dll
 0000:ffff8000       .debug$S                   10000000     ucrt:api-ms-win-crt-runtime-l1-1-0.dll
 0000:ffff8000       .debug$S                   10000000     ucrt:api-ms-win-crt-runtime-l1-1-0.dll
 0000:ffff8000       .debug$S                   10000000     ucrt:api-ms-win-crt-runtime-l1-1-0.dll
 0000:ffff8000       .debug$S                   10000000     ucrt:api-ms-win-crt-runtime-l1-1-0.dll
 0000:ffff8000       .debug$S                   10000000     kernel32:KERNEL32.dll
 0000:ffff8000       .debug$S                   10000000     ucrt:api-ms-win-crt-string-l1-1-0.dll
 0001:00000000       ?FunctionCallbackWrapper@imp@Nan@@YAXABV?$FunctionCallbackInfo@VValue@v8@@@v8@@@Z 10001000 f   notifications_bindings.obj
 0001:00000750       __register_notifications_bindings 10001750 f   notifications_bindings.obj
 0001:0000090f       ?dllmain_crt_dispatch@@YGHQAUHINSTANCE__@@KQAX@Z 1000190f f   MSVCRT:dll_dllmain.obj
 0001:00000962       ?dllmain_crt_process_attach@@YAHQAUHINSTANCE__@@QAX@Z 10001962 f   MSVCRT:dll_dllmain.obj
 0001:00000a6c       ?dllmain_crt_process_detach@@YAH_N@Z 10001a6c f   MSVCRT:dll_dllmain.obj
 0001:00000afe       ?dllmain_dispatch@@YAHQAUHINSTANCE__@@KQAX@Z 10001afe f   MSVCRT:dll_dllmain.obj
 0001:00000c04       ?dllmain_raw@@YGHQAUHINSTANCE__@@KQAX@Z 10001c04 f   MSVCRT:dll_dllmain.obj
 0001:00000d73       ___get_entropy             10001d73 f   MSVCRT:gs_support.obj
 0001:00000e6e       ?find_pe_section@@YAPAU_IMAGE_SECTION_HEADER@@QAEI@Z 10001e6e f   MSVCRT:utility.obj
 0001:000012f0       $$000000                   100022f0     MSVCRT:sehprolg4.obj
 0001:00001570       __unwindfunclet$?New@?$Factory@VFunctionTemplate@v8@@@imp@Nan@@SA?AV?$Local@VFunctionTemplate@v8@@@v8@@P6AXABV?$FunctionCallbackInfo@VValue@v8@@@3@@ZV?$Local@VValue@v8@@@5@V?$Local@VSignature@v8@@@5@@Z$0 10002570 f   notifications_bindings.obj
 0001:00001579       __unwindfunclet$?New@?$Factory@VFunctionTemplate@v8@@@imp@Nan@@SA?AV?$Local@VFunctionTemplate@v8@@@v8@@P6AXABV?$FunctionCallbackInfo@VValue@v8@@@3@@ZV?$Local@VValue@v8@@@5@V?$Local@VSignature@v8@@@5@@Z$1 10002579 f   notifications_bindings.obj
 0001:00001582       __ehhandler$?New@?$Factory@VFunctionTemplate@v8@@@imp@Nan@@SA?AV?$Local@VFunctionTemplate@v8@@@v8@@P6AXABV?$FunctionCallbackInfo@VValue@v8@@@3@@ZV?$Local@VValue@v8@@@5@V?$Local@VSignature@v8@@@5@@Z 10002582 f   notifications_bindings.obj
 0001:000015a0       __unwindfunclet$?RegisterAppForNotificationSupport@@YAXABV?$FunctionCallbackInfo@VValue@v8@@@Nan@@@Z$0 100025a0 f   notifications_bindings.obj
 0001:000015a8       __unwindfunclet$?RegisterAppForNotificationSupport@@YAXABV?$FunctionCallbackInfo@VValue@v8@@@Nan@@@Z$8 100025a8 f   notifications_bindings.obj
 0001:000015b1       __unwindfunclet$?RegisterAppForNotificationSupport@@YAXABV?$FunctionCallbackInfo@VValue@v8@@@Nan@@@Z$10 100025b1 f   notifications_bindings.obj
 0001:000015ba       __unwindfunclet$?RegisterAppForNotificationSupport@@YAXABV?$FunctionCallbackInfo@VValue@v8@@@Nan@@@Z$1 100025ba f   notifications_bindings.obj
 0001:000015c3       __unwindfunclet$?RegisterAppForNotificationSupport@@YAXABV?$FunctionCallbackInfo@VValue@v8@@@Nan@@@Z$2 100025c3 f   notifications_bindings.obj
 0001:000015cc       __unwindfunclet$?RegisterAppForNotificationSupport@@YAXABV?$FunctionCallbackInfo@VValue@v8@@@Nan@@@Z$12 100025cc f   notifications_bindings.obj
 0001:000015d5       __unwindfunclet$?RegisterAppForNotificationSupport@@YAXABV?$FunctionCallbackInfo@VValue@v8@@@Nan@@@Z$14 100025d5 f   notifications_bindings.obj
 0001:000015de       __unwindfunclet$?RegisterAppForNotificationSupport@@YAXABV?$FunctionCallbackInfo@VValue@v8@@@Nan@@@Z$16 100025de f   notifications_bindings.obj
 0001:000015e6       __unwindfunclet$?RegisterAppForNotificationSupport@@YAXABV?$FunctionCallbackInfo@VValue@v8@@@Nan@@@Z$4 100025e6 f   notifications_bindings.obj
 0001:000015ee       __ehhandler$?RegisterAppForNotificationSupport@@YAXABV?$FunctionCallbackInfo@VValue@v8@@@Nan@@@Z 100025ee f   notifications_bindings.obj
 0001:00001610       __unwindfunclet$?RegisterComServer@@YAXABV?$FunctionCallbackInfo@VValue@v8@@@Nan@@@Z$0 10002610 f   notifications_bindings.obj
 0001:00001610       __unwindfunclet$?UnregisterActivator@@YAXABV?$FunctionCallbackInfo@VValue@v8@@@Nan@@@Z$0 10002610 f   notifications_bindings.obj
 0001:00001610       __unwindfunclet$?RegisterActivator@@YAXABV?$FunctionCallbackInfo@VValue@v8@@@Nan@@@Z$0 10002610 f   notifications_bindings.obj
 0001:00001618       __ehhandler$?RegisterComServer@@YAXABV?$FunctionCallbackInfo@VValue@v8@@@Nan@@@Z 10002618 f   notifications_bindings.obj
 0001:00001618       __ehhandler$?RegisterActivator@@YAXABV?$FunctionCallbackInfo@VValue@v8@@@Nan@@@Z 10002618 f   notifications_bindings.obj
 0001:00001618       __ehhandler$?UnregisterActivator@@YAXABV?$FunctionCallbackInfo@VValue@v8@@@Nan@@@Z 10002618 f   notifications_bindings.obj
 0001:00001640       __unwindfunclet$??$SetMethod@VObject@v8@@VLocal@2@@Nan@@YAXV?$Local@VObject@v8@@@v8@@PBDP6AXABV?$FunctionCallbackInfo@VValue@v8@@@0@@Z@Z$0 10002640 f   notifications_bindings.obj
 0001:00001648       __ehhandler$??$SetMethod@VObject@v8@@VLocal@2@@Nan@@YAXV?$Local@VObject@v8@@@v8@@PBDP6AXABV?$FunctionCallbackInfo@VValue@v8@@@0@@Z@Z 10002648 f   notifications_bindings.obj
 0001:00001670       __unwindfunclet$??$SetMethodAux@V?$Local@VObject@v8@@@v8@@@imp@Nan@@YAXV?$Local@VObject@v8@@@v8@@V?$Local@VString@v8@@@3@V?$Local@VFunctionTemplate@v8@@@3@ZZ$0 10002670 f   notifications_bindings.obj
 0001:00001679       __unwindfunclet$??$SetMethodAux@V?$Local@VObject@v8@@@v8@@@imp@Nan@@YAXV?$Local@VObject@v8@@@v8@@V?$Local@VString@v8@@@3@V?$Local@VFunctionTemplate@v8@@@3@ZZ$2 10002679 f   notifications_bindings.obj
 0001:00001682       __ehhandler$??$SetMethodAux@V?$Local@VObject@v8@@@v8@@@imp@Nan@@YAXV?$Local@VObject@v8@@@v8@@V?$Local@VString@v8@@@3@V?$Local@VFunctionTemplate@v8@@@3@ZZ 10002682 f   notifications_bindings.obj
 0002:00000144       _GS_ExceptionPointers      10003144     MSVCRT:gs_report.obj
 0002:000006d0       __unwindtable$?New@?$Factory@VFunctionTemplate@v8@@@imp@Nan@@SA?AV?$Local@VFunctionTemplate@v8@@@v8@@P6AXABV?$FunctionCallbackInfo@VValue@v8@@@3@@ZV?$Local@VValue@v8@@@5@V?$Local@VSignature@v8@@@5@@Z 100036d0     notifications_bindings.obj
 0002:000006e0       __ehfuncinfo$?New@?$Factory@VFunctionTemplate@v8@@@imp@Nan@@SA?AV?$Local@VFunctionTemplate@v8@@@v8@@P6AXABV?$FunctionCallbackInfo@VValue@v8@@@3@@ZV?$Local@VValue@v8@@@5@V?$Local@VSignature@v8@@@5@@Z 100036e0     notifications_bindings.obj
 0002:00000704       __ehfuncinfo$?RegisterAppForNotificationSupport@@YAXABV?$FunctionCallbackInfo@VValue@v8@@@Nan@@@Z 10003704     notifications_bindings.obj
 0002:00000728       __unwindtable$?RegisterAppForNotificationSupport@@YAXABV?$FunctionCallbackInfo@VValue@v8@@@Nan@@@Z 10003728     notifications_bindings.obj
 0002:00000770       __unwindtable$?RegisterActivator@@YAXABV?$FunctionCallbackInfo@VValue@v8@@@Nan@@@Z 10003770     notifications_bindings.obj
 0002:00000770       __unwindtable$?UnregisterActivator@@YAXABV?$FunctionCallbackInfo@VValue@v8@@@Nan@@@Z 10003770     notifications_bindings.obj
 0002:00000770       __unwindtable$?RegisterComServer@@YAXABV?$FunctionCallbackInfo@VValue@v8@@@Nan@@@Z 10003770     notifications_bindings.obj
 0002:00000778       __ehfuncinfo$?RegisterActivator@@YAXABV?$FunctionCallbackInfo@VValue@v8@@@Nan@@@Z 10003778     notifications_bindings.obj
 0002:00000778       __ehfuncinfo$?UnregisterActivator@@YAXABV?$FunctionCallbackInfo@VValue@v8@@@Nan@@@Z 10003778     notifications_bindings.obj
 0002:00000778       __ehfuncinfo$?RegisterComServer@@YAXABV?$FunctionCallbackInfo@VValue@v8@@@Nan@@@Z 10003778     notifications_bindings.obj
 0002:0000079c       __unwindtable$??$SetMethod@VObject@v8@@VLocal@2@@Nan@@YAXV?$Local@VObject@v8@@@v8@@PBDP6AXABV?$FunctionCallbackInfo@VValue@v8@@@0@@Z@Z 1000379c     notifications_bindings.obj
 0002:000007a4       __ehfuncinfo$??$SetMethod@VObject@v8@@VLocal@2@@Nan@@YAXV?$Local@VObject@v8@@@v8@@PBDP6AXABV?$FunctionCallbackInfo@VValue@v8@@@0@@Z@Z 100037a4     notifications_bindings.obj
 0002:000007c8       __unwindtable$??$SetMethodAux@V?$Local@VObject@v8@@@v8@@@imp@Nan@@YAXV?$Local@VObject@v8@@@v8@@V?$Local@VString@v8@@@3@V?$Local@VFunctionTemplate@v8@@@3@ZZ 100037c8     notifications_bindings.obj
 0002:000007d8       __ehfuncinfo$??$SetMethodAux@V?$Local@VObject@v8@@@v8@@@imp@Nan@@YAXV?$Local@VObject@v8@@@v8@@V?$Local@VString@v8@@@3@V?$Local@VFunctionTemplate@v8@@@3@ZZ 100037d8     notifications_bindings.obj
 0002:00000800       __sehtable$?dllmain_crt_process_attach@@YAHQAUHINSTANCE__@@QAX@Z 10003800     MSVCRT:dll_dllmain.obj
 0002:00000820       __sehtable$?dllmain_crt_process_detach@@YAH_N@Z 10003820     MSVCRT:dll_dllmain.obj
 0002:00000840       __sehtable$?dllmain_dispatch@@YAHQAUHINSTANCE__@@KQAX@Z 10003840     MSVCRT:dll_dllmain.obj
 0002:00000860       __sehtable$___scrt_is_nonwritable_in_current_image 10003860     MSVCRT:utility.obj
 0002:00000880       .edata                     10003880     notifications_bindings.exp
 0002:000008a8       rgpv                       100038a8     notifications_bindings.exp
 0002:000008ac       rgszName                   100038ac     notifications_bindings.exp
 0002:000008b0       rgwOrd                     100038b0     notifications_bindings.exp
 0002:000008b2       szName                     100038b2     notifications_bindings.exp
 0002:000008ce       $N00001                    100038ce     notifications_bindings.exp
 0002:00000a88       .idata$6                   10003a88     kernel32:KERNEL32.dll
 0002:00000aa8       .idata$6                   10003aa8     ole32:ole32.dll
 0002:00001354       .idata$6                   10004354     iojs:node.dll
 0002:0000144c       .idata$6                   1000444c     InteractiveNotifications:InteractiveNotifications.dll
 0002:000014c4       .idata$6                   100044c4     vcruntime:VCRUNTIME140.dll
 0002:0000157c       .idata$6                   1000457c     ucrt:api-ms-win-crt-runtime-l1-1-0.dll
 0003:00000018       __module                   10005018     notifications_bindings.obj
 0003:00000040       ?__proc_attached@@3HA      10005040     MSVCRT:dll_dllmain.obj
 0003:00000048       _GS_ExceptionRecord        10005048     MSVCRT:gs_report.obj
 0003:00000098       _GS_ContextRecord          10005098     MSVCRT:gs_report.obj
 0003:00000388       ?is_initialized_as_dll@@3_NA 10005388     MSVCRT:utility.obj
 0003:00000389       ?module_local_atexit_table_initialized@@3_NA 10005389     MSVCRT:utility.obj
 0003:0000038c       ?module_local_atexit_table@@3U_onexit_table_t@@A 1000538c     MSVCRT:utility.obj
 0003:00000398       ?module_local_at_quick_exit_table@@3U_onexit_table_t@@A 10005398     MSVCRT:utility.obj
 0004:00000060       $R000000                   10006060     * linker generated manifest res *

 Exports

  ordinal    name

        1    __register_notifications_bindings_
               exported name: _register_notifications_bindings_
